target datalayout = "e-m:e-p270:32:32-p271:32:32-p272:64:64-i64:64-i128:128-f80:128-n8:16:32:64-S128"
target triple = "x86_64-pc-linux-gnu"

%"class.std::__cxx11::basic_string" = type { %"struct.std::__cxx11::basic_string<char>::_Alloc_hider", i64, %union.anon }
%"struct.std::__cxx11::basic_string<char>::_Alloc_hider" = type { ptr }
%union.anon = type { i64, [8 x i8] }
%"class.rocksdb::FlushJob" = type { ptr, %"class.std::__cxx11::basic_string", %"class.std::__cxx11::basic_string", ptr, ptr, ptr, i64, %"struct.rocksdb::FileOptions", ptr, ptr, ptr, %"class.std::vector.3", i64, i64, ptr, ptr, i32, ptr, ptr, ptr, i8, ptr, ptr, %"struct.rocksdb::TableProperties", i8, i8, i8, %"class.std::__cxx11::list", %"struct.rocksdb::FileMetaData", %"class.rocksdb::autovector", ptr, ptr, i8, i32, %"class.std::shared_ptr.24", ptr, %"class.std::__cxx11::basic_string", ptr, %"class.std::shared_ptr", %"class.std::__cxx11::basic_string", i64 }
%"struct.rocksdb::FileOptions" = type <{ %"struct.rocksdb::EnvOptions", %"struct.rocksdb::IOOptions", i8, i8, [6 x i8] }>
%"struct.rocksdb::EnvOptions" = type { i8, i8, i8, i8, i8, i8, i64, i8, i8, i64, i64, ptr }
%"struct.rocksdb::IOOptions" = type <{ %"class.std::chrono::duration", i8, [3 x i8], i32, i8, [7 x i8], %"class.std::unordered_map", i8, i8, i8, i8, [4 x i8] }>
%"class.std::chrono::duration" = type { i64 }
%"class.std::unordered_map" = type { %"class.std::_Hashtable" }
%"class.std::_Hashtable" = type { ptr, i64, %"struct.std::__detail::_Hash_node_base", i64, %"struct.std::__detail::_Prime_rehash_policy", ptr }
%"struct.std::__detail::_Hash_node_base" = type { ptr }
%"struct.std::__detail::_Prime_rehash_policy" = type { float, i64 }
%"class.std::vector.3" = type { %"struct.std::_Vector_base.4" }
%"struct.std::_Vector_base.4" = type { %"struct.std::_Vector_base<unsigned long, std::allocator<unsigned long>>::_Vector_impl" }
%"struct.std::_Vector_base<unsigned long, std::allocator<unsigned long>>::_Vector_impl" = type { %"struct.std::_Vector_base<unsigned long, std::allocator<unsigned long>>::_Vector_impl_data" }
%"struct.std::_Vector_base<unsigned long, std::allocator<unsigned long>>::_Vector_impl_data" = type { ptr, ptr, ptr }
%"struct.rocksdb::TableProperties" = type { i64, i64, i64, i64, i64, i64, i64, i64, i64, i64, i64, i64, i64, i64, i64, i64, i64, i64, i64, i64, i64, i64, i64, i64, i64, i64, i64, i64, i64, %"class.std::__cxx11::basic_string", %"class.std::__cxx11::basic_string", %"class.std::__cxx11::basic_string", %"class.std::__cxx11::basic_string", %"class.std::__cxx11::basic_string", %"class.std::__cxx11::basic_string", %"class.std::__cxx11::basic_string", %"class.std::__cxx11::basic_string", %"class.std::__cxx11::basic_string", %"class.std::__cxx11::basic_string", %"class.std::__cxx11::basic_string", %"class.std::__cxx11::basic_string", %"class.std::map", %"class.std::map" }
%"class.std::map" = type { %"class.std::_Rb_tree" }
%"class.std::_Rb_tree" = type { %"struct.std::_Rb_tree<std::__cxx11::basic_string<char>, std::pair<const std::__cxx11::basic_string<char>, std::__cxx11::basic_string<char>>, std::_Select1st<std::pair<const std::__cxx11::basic_string<char>, std::__cxx11::basic_string<char>>>, std::less<std::__cxx11::basic_string<char>>>::_Rb_tree_impl" }
%"struct.std::_Rb_tree<std::__cxx11::basic_string<char>, std::pair<const std::__cxx11::basic_string<char>, std::__cxx11::basic_string<char>>, std::_Select1st<std::pair<const std::__cxx11::basic_string<char>, std::__cxx11::basic_string<char>>>, std::less<std::__cxx11::basic_string<char>>>::_Rb_tree_impl" = type { [8 x i8], %"struct.std::_Rb_tree_header" }
%"struct.std::_Rb_tree_header" = type { %"struct.std::_Rb_tree_node_base", i64 }
%"struct.std::_Rb_tree_node_base" = type { i32, ptr, ptr, ptr }
%"class.std::__cxx11::list" = type { %"class.std::__cxx11::_List_base" }
%"class.std::__cxx11::_List_base" = type { %"struct.std::__cxx11::_List_base<std::unique_ptr<rocksdb::FlushJobInfo>, std::allocator<std::unique_ptr<rocksdb::FlushJobInfo>>>::_List_impl" }
%"struct.std::__cxx11::_List_base<std::unique_ptr<rocksdb::FlushJobInfo>, std::allocator<std::unique_ptr<rocksdb::FlushJobInfo>>>::_List_impl" = type { %"struct.std::__detail::_List_node_header" }
%"struct.std::__detail::_List_node_header" = type { %"struct.std::__detail::_List_node_base", i64 }
%"struct.std::__detail::_List_node_base" = type { ptr, ptr }
%"struct.rocksdb::FileMetaData" = type <{ %"struct.rocksdb::FileDescriptor", %"class.rocksdb::InternalKey", %"class.rocksdb::InternalKey", ptr, %"struct.rocksdb::FileSampledStats", i64, i64, i64, i64, i64, i64, i64, i32, i8, i8, i8, i8, i64, i64, i64, i64, %"class.std::__cxx11::basic_string", %"class.std::__cxx11::basic_string", %"struct.std::array", i64, i8, [7 x i8] }>
%"struct.rocksdb::FileDescriptor" = type { ptr, i64, i64, i64, i64 }
%"class.rocksdb::InternalKey" = type { %"class.std::__cxx11::basic_string" }
%"struct.rocksdb::FileSampledStats" = type { %"struct.std::atomic" }
%"struct.std::atomic" = type { %"struct.std::__atomic_base" }
%"struct.std::__atomic_base" = type { i64 }
%"struct.std::array" = type { [2 x i64] }
%"class.rocksdb::autovector" = type { i64, [64 x i8], ptr, %"class.std::vector.19" }
%"class.std::vector.19" = type { %"struct.std::_Vector_base.20" }
%"struct.std::_Vector_base.20" = type { %"struct.std::_Vector_base<rocksdb::ReadOnlyMemTable *, std::allocator<rocksdb::ReadOnlyMemTable *>>::_Vector_impl" }
%"struct.std::_Vector_base<rocksdb::ReadOnlyMemTable *, std::allocator<rocksdb::ReadOnlyMemTable *>>::_Vector_impl" = type { %"struct.std::_Vector_base<rocksdb::ReadOnlyMemTable *, std::allocator<rocksdb::ReadOnlyMemTable *>>::_Vector_impl_data" }
%"struct.std::_Vector_base<rocksdb::ReadOnlyMemTable *, std::allocator<rocksdb::ReadOnlyMemTable *>>::_Vector_impl_data" = type { ptr, ptr, ptr }
%"class.std::shared_ptr.24" = type { %"class.std::__shared_ptr.25" }
%"class.std::__shared_ptr.25" = type { ptr, %"class.std::__shared_count" }
%"class.std::__shared_count" = type { ptr }
%"class.std::shared_ptr" = type { %"class.std::__shared_ptr" }
%"class.std::__shared_ptr" = type { ptr, %"class.std::__shared_count" }
%"class.std::shared_ptr.61" = type { %"class.std::__shared_ptr.62" }
%"class.std::__shared_ptr.62" = type { ptr, %"class.std::__shared_count" }
%"class.std::vector.90" = type { %"struct.std::_Vector_base.91" }
%"struct.std::_Vector_base.91" = type { %"struct.std::_Vector_base<rocksdb::ObsoleteFileInfo, std::allocator<rocksdb::ObsoleteFileInfo>>::_Vector_impl" }
%"struct.std::_Vector_base<rocksdb::ObsoleteFileInfo, std::allocator<rocksdb::ObsoleteFileInfo>>::_Vector_impl" = type { %"struct.std::_Vector_base<rocksdb::ObsoleteFileInfo, std::allocator<rocksdb::ObsoleteFileInfo>>::_Vector_impl_data" }
%"struct.std::_Vector_base<rocksdb::ObsoleteFileInfo, std::allocator<rocksdb::ObsoleteFileInfo>>::_Vector_impl_data" = type { ptr, ptr, ptr }
%"class.std::vector.95" = type { %"struct.std::_Vector_base.96" }
%"struct.std::_Vector_base.96" = type { %"struct.std::_Vector_base<rocksdb::ObsoleteBlobFileInfo, std::allocator<rocksdb::ObsoleteBlobFileInfo>>::_Vector_impl" }
%"struct.std::_Vector_base<rocksdb::ObsoleteBlobFileInfo, std::allocator<rocksdb::ObsoleteBlobFileInfo>>::_Vector_impl" = type { %"struct.std::_Vector_base<rocksdb::ObsoleteBlobFileInfo, std::allocator<rocksdb::ObsoleteBlobFileInfo>>::_Vector_impl_data" }
%"struct.std::_Vector_base<rocksdb::ObsoleteBlobFileInfo, std::allocator<rocksdb::ObsoleteBlobFileInfo>>::_Vector_impl_data" = type { ptr, ptr, ptr }
%"class.std::vector.101" = type { %"struct.std::_Vector_base.102" }
%"struct.std::_Vector_base.102" = type { %"struct.std::_Vector_base<std::__cxx11::basic_string<char>, std::allocator<std::__cxx11::basic_string<char>>>::_Vector_impl" }
%"struct.std::_Vector_base<std::__cxx11::basic_string<char>, std::allocator<std::__cxx11::basic_string<char>>>::_Vector_impl" = type { %"struct.std::_Vector_base<std::__cxx11::basic_string<char>, std::allocator<std::__cxx11::basic_string<char>>>::_Vector_impl_data" }
%"struct.std::_Vector_base<std::__cxx11::basic_string<char>, std::allocator<std::__cxx11::basic_string<char>>>::_Vector_impl_data" = type { ptr, ptr, ptr }
%"struct.std::atomic.157" = type { %"struct.std::__atomic_base.158" }
%"struct.std::__atomic_base.158" = type { i32 }
%"class.rocksdb::Status" = type { i8, i8, i8, i8, i8, i8, %"class.std::unique_ptr.278" }
%"class.std::unique_ptr.278" = type { %"struct.std::__uniq_ptr_data.279" }
%"struct.std::__uniq_ptr_data.279" = type { %"class.std::__uniq_ptr_impl.280" }
%"class.std::__uniq_ptr_impl.280" = type { %"class.std::tuple.281" }
%"class.std::tuple.281" = type { %"struct.std::_Tuple_impl.282" }
%"struct.std::_Tuple_impl.282" = type { %"struct.std::_Head_base.285" }
%"struct.std::_Head_base.285" = type { ptr }
%"class.rocksdb::VersionSet" = type <{ ptr, %"class.rocksdb::WalSet", %"class.std::unique_ptr.256", ptr, ptr, %"class.rocksdb::FileSystemPtr", ptr, %"class.std::__cxx11::basic_string", %"class.std::__cxx11::basic_string", ptr, %"struct.std::atomic", %"struct.std::atomic", i64, i64, i64, i64, %"struct.std::atomic", i64, %"struct.std::atomic", %"struct.std::atomic", i64, %"class.std::unique_ptr.267", i64, %"class.std::deque", i64, %"class.std::vector.90", %"class.std::vector.95", %"class.std::vector.101", %"struct.rocksdb::FileOptions", ptr, %"class.rocksdb::IOStatus", %"class.std::shared_ptr.24", %"class.std::__cxx11::basic_string", %"struct.rocksdb::OffpeakTimeOption", ptr, i8, i8, [6 x i8] }>
%"class.rocksdb::WalSet" = type { %"class.std::map.250", i64 }
%"class.std::map.250" = type { %"class.std::_Rb_tree.251" }
%"class.std::_Rb_tree.251" = type { %"struct.std::_Rb_tree<unsigned long, std::pair<const unsigned long, rocksdb::WalMetadata>, std::_Select1st<std::pair<const unsigned long, rocksdb::WalMetadata>>, std::less<unsigned long>>::_Rb_tree_impl" }
%"struct.std::_Rb_tree<unsigned long, std::pair<const unsigned long, rocksdb::WalMetadata>, std::_Select1st<std::pair<const unsigned long, rocksdb::WalMetadata>>, std::less<unsigned long>>::_Rb_tree_impl" = type { [8 x i8], %"struct.std::_Rb_tree_header" }
%"class.std::unique_ptr.256" = type { %"struct.std::__uniq_ptr_data.257" }
%"struct.std::__uniq_ptr_data.257" = type { %"class.std::__uniq_ptr_impl.258" }
%"class.std::__uniq_ptr_impl.258" = type { %"class.std::tuple.259" }
%"class.std::tuple.259" = type { %"struct.std::_Tuple_impl.260" }
%"struct.std::_Tuple_impl.260" = type { %"struct.std::_Head_base.263" }
%"struct.std::_Head_base.263" = type { ptr }
%"class.rocksdb::FileSystemPtr" = type { %"class.std::shared_ptr.61", %"class.std::shared_ptr.24", %"class.std::shared_ptr.264" }
%"class.std::shared_ptr.264" = type { %"class.std::__shared_ptr.265" }
%"class.std::__shared_ptr.265" = type { ptr, %"class.std::__shared_count" }
%"class.std::unique_ptr.267" = type { %"struct.std::__uniq_ptr_data.268" }
%"struct.std::__uniq_ptr_data.268" = type { %"class.std::__uniq_ptr_impl.269" }
%"class.std::__uniq_ptr_impl.269" = type { %"class.std::tuple.270" }
%"class.std::tuple.270" = type { %"struct.std::_Tuple_impl.271" }
%"struct.std::_Tuple_impl.271" = type { %"struct.std::_Head_base.274" }
%"struct.std::_Head_base.274" = type { ptr }
%"class.std::deque" = type { %"class.std::_Deque_base" }
%"class.std::_Deque_base" = type { %"struct.std::_Deque_base<rocksdb::VersionSet::ManifestWriter *, std::allocator<rocksdb::VersionSet::ManifestWriter *>>::_Deque_impl" }
%"struct.std::_Deque_base<rocksdb::VersionSet::ManifestWriter *, std::allocator<rocksdb::VersionSet::ManifestWriter *>>::_Deque_impl" = type { %"struct.std::_Deque_base<rocksdb::VersionSet::ManifestWriter *, std::allocator<rocksdb::VersionSet::ManifestWriter *>>::_Deque_impl_data" }
%"struct.std::_Deque_base<rocksdb::VersionSet::ManifestWriter *, std::allocator<rocksdb::VersionSet::ManifestWriter *>>::_Deque_impl_data" = type { ptr, i64, %"struct.std::_Deque_iterator", %"struct.std::_Deque_iterator" }
%"struct.std::_Deque_iterator" = type { ptr, ptr, ptr, ptr }
%"class.rocksdb::IOStatus" = type { %"class.rocksdb::Status" }
%"struct.rocksdb::OffpeakTimeOption" = type { %"class.std::__cxx11::basic_string", i32, i32 }
%"class.rocksdb::ColumnFamilySet" = type { %"class.std::unordered_map.628", %"class.std::unordered_map.642", %"class.std::unordered_map.662", %"class.std::unordered_map.662", i32, [4 x i8], %"struct.rocksdb::FileOptions", ptr, ptr, %"class.std::__cxx11::basic_string", ptr, ptr, ptr, ptr, ptr, %"class.std::shared_ptr.24", ptr, %"class.std::__cxx11::basic_string" }
%"class.std::unordered_map.628" = type { %"class.std::_Hashtable.629" }
%"class.std::_Hashtable.629" = type { ptr, i64, %"struct.std::__detail::_Hash_node_base", i64, %"struct.std::__detail::_Prime_rehash_policy", ptr }
%"class.std::unordered_map.642" = type { %"class.std::_Hashtable.643" }
%"class.std::_Hashtable.643" = type { ptr, i64, %"struct.std::__detail::_Hash_node_base", i64, %"struct.std::__detail::_Prime_rehash_policy", ptr }
%"class.std::unordered_map.662" = type { %"class.std::_Hashtable.663" }
%"class.std::_Hashtable.663" = type { ptr, i64, %"struct.std::__detail::_Hash_node_base", i64, %"struct.std::__detail::_Prime_rehash_policy", ptr }
%"class.rocksdb::WriteController" = type { %"struct.std::atomic.157", %"struct.std::atomic.157", %"struct.std::atomic.157", i64, i64, i64, i64, %"class.std::unique_ptr.676" }
%"class.std::unique_ptr.676" = type { %"struct.std::__uniq_ptr_data.677" }
%"struct.std::__uniq_ptr_data.677" = type { %"class.std::__uniq_ptr_impl.678" }
%"class.std::__uniq_ptr_impl.678" = type { %"class.std::tuple.679" }
%"class.std::tuple.679" = type { %"struct.std::_Tuple_impl.680" }
%"struct.std::_Tuple_impl.680" = type { %"struct.std::_Head_base.683" }
%"struct.std::_Head_base.683" = type { ptr }

; Function Attrs: mustprogress nounwind uwtable
define linkonce_odr noundef nonnull align 8 dereferenceable(8) ptr @_ZNSt10_Head_baseILm0EPN7rocksdb15ColumnFamilySetELb0EE7_M_headERKS3_(ptr noundef nonnull align 8 dereferenceable(8) %0) #3 comdat align 2 {
  %2 = alloca ptr, align 8
  store ptr %0, ptr %2, align 8, !tbaa !1878
  %3 = load ptr, ptr %2, align 8, !tbaa !1878
  %4 = getelementptr inbounds nuw %"struct.std::_Head_base.263", ptr %3, i32 0, i32 0
  ret ptr %4
}

; Function Attrs: mustprogress nounwind uwtable
define linkonce_odr noundef nonnull align 8 dereferenceable(8) ptr @_ZNSt11_Tuple_implILm0EJPN7rocksdb15ColumnFamilySetESt14default_deleteIS1_EEE7_M_headERKS5_(ptr noundef nonnull align 8 dereferenceable(8) %0) #3 comdat align 2 {
  %2 = alloca ptr, align 8
  store ptr %0, ptr %2, align 8, !tbaa !1876
  %3 = load ptr, ptr %2, align 8, !tbaa !1876
  %4 = call noundef nonnull align 8 dereferenceable(8) ptr @_ZNSt10_Head_baseILm0EPN7rocksdb15ColumnFamilySetELb0EE7_M_headERKS3_(ptr noundef nonnull align 8 dereferenceable(8) %3) #4
  ret ptr %4
}

; Function Attrs: mustprogress nounwind uwtable
define linkonce_odr noundef nonnull align 8 dereferenceable(8) ptr @_ZSt12__get_helperILm0EPN7rocksdb15ColumnFamilySetEJSt14default_deleteIS1_EEERKT0_RKSt11_Tuple_implIXT_EJS5_DpT1_EE(ptr noundef nonnull align 8 dereferenceable(8) %0) #3 comdat {
  %2 = alloca ptr, align 8
  store ptr %0, ptr %2, align 8, !tbaa !1876
  %3 = load ptr, ptr %2, align 8, !tbaa !1876
  %4 = call noundef nonnull align 8 dereferenceable(8) ptr @_ZNSt11_Tuple_implILm0EJPN7rocksdb15ColumnFamilySetESt14default_deleteIS1_EEE7_M_headERKS5_(ptr noundef nonnull align 8 dereferenceable(8) %3) #4
  ret ptr %4
}

; Function Attrs: mustprogress nounwind uwtable
define linkonce_odr noundef nonnull align 8 dereferenceable(8) ptr @_ZSt3getILm0EJPN7rocksdb15ColumnFamilySetESt14default_deleteIS1_EEERKNSt13tuple_elementIXT_ESt5tupleIJDpT0_EEE4typeERKS9_(ptr noundef nonnull align 8 dereferenceable(8) %0) #3 comdat {
  %2 = alloca ptr, align 8
  store ptr %0, ptr %2, align 8, !tbaa !1874
  %3 = load ptr, ptr %2, align 8, !tbaa !1874
  %4 = call noundef nonnull align 8 dereferenceable(8) ptr @_ZSt12__get_helperILm0EPN7rocksdb15ColumnFamilySetEJSt14default_deleteIS1_EEERKT0_RKSt11_Tuple_implIXT_EJS5_DpT1_EE(ptr noundef nonnull align 8 dereferenceable(8) %3) #4
  ret ptr %4
}

; Function Attrs: mustprogress nounwind uwtable
define linkonce_odr noundef i32 @_ZStanSt12memory_orderSt23__memory_order_modifier(i32 noundef %0, i32 noundef %1) #3 comdat {
  %3 = alloca i32, align 4
  %4 = alloca i32, align 4
  store i32 %0, ptr %3, align 4, !tbaa !681
  store i32 %1, ptr %4, align 4, !tbaa !1277
  %5 = load i32, ptr %3, align 4, !tbaa !681
  %6 = load i32, ptr %4, align 4, !tbaa !1277
  %7 = and i32 %5, %6
  ret i32 %7
}

; Function Attrs: mustprogress nounwind uwtable
define linkonce_odr noundef ptr @_ZNKSt15__uniq_ptr_implIN7rocksdb15ColumnFamilySetESt14default_deleteIS1_EE6_M_ptrEv(ptr noundef nonnull align 8 dereferenceable(8) %0) #3 comdat align 2 {
  %2 = alloca ptr, align 8
  store ptr %0, ptr %2, align 8, !tbaa !1872
  %3 = load ptr, ptr %2, align 8
  %4 = getelementptr inbounds nuw %"class.std::__uniq_ptr_impl.258", ptr %3, i32 0, i32 0
  %5 = call noundef nonnull align 8 dereferenceable(8) ptr @_ZSt3getILm0EJPN7rocksdb15ColumnFamilySetESt14default_deleteIS1_EEERKNSt13tuple_elementIXT_ESt5tupleIJDpT0_EEE4typeERKS9_(ptr noundef nonnull align 8 dereferenceable(8) %4) #4
  %6 = load ptr, ptr %5, align 8, !tbaa !1071
  ret ptr %6
}

; Function Attrs: alwaysinline mustprogress nounwind uwtable
define linkonce_odr noundef i32 @_ZNKSt13__atomic_baseIiE4loadESt12memory_order(ptr noundef nonnull align 4 dereferenceable(4) %0, i32 noundef %1) #19 comdat align 2 {
  %3 = alloca ptr, align 8
  %4 = alloca i32, align 4
  %5 = alloca i32, align 4
  %6 = alloca i32, align 4
  store ptr %0, ptr %3, align 8, !tbaa !1880
  store i32 %1, ptr %4, align 4, !tbaa !681
  %7 = load ptr, ptr %3, align 8
  call void @llvm.lifetime.start.p0(i64 4, ptr %5) #4
  %8 = load i32, ptr %4, align 4, !tbaa !681
  %9 = call noundef i32 @_ZStanSt12memory_orderSt23__memory_order_modifier(i32 noundef %8, i32 noundef 65535)
  store i32 %9, ptr %5, align 4, !tbaa !681
  br label %10

10:                                               ; preds = %2
  br label %11

11:                                               ; preds = %10
  br label %12

12:                                               ; preds = %11
  br label %13

13:                                               ; preds = %12
  br label %14

14:                                               ; preds = %13
  br label %15

15:                                               ; preds = %14
  %16 = getelementptr inbounds nuw %"struct.std::__atomic_base.158", ptr %7, i32 0, i32 0
  %17 = load i32, ptr %4, align 4, !tbaa !681
  switch i32 %17, label %18 [
    i32 1, label %20
    i32 2, label %20
    i32 5, label %22
  ]

18:                                               ; preds = %15
  %19 = load atomic i32, ptr %16 monotonic, align 4
  store i32 %19, ptr %6, align 4
  br label %24

20:                                               ; preds = %15, %15
  %21 = load atomic i32, ptr %16 acquire, align 4
  store i32 %21, ptr %6, align 4
  br label %24

22:                                               ; preds = %15
  %23 = load atomic i32, ptr %16 seq_cst, align 4
  store i32 %23, ptr %6, align 4
  br label %24

24:                                               ; preds = %22, %20, %18
  %25 = load i32, ptr %6, align 4, !tbaa !259
  call void @llvm.lifetime.end.p0(i64 4, ptr %5) #4
  ret i32 %25
}

; Function Attrs: mustprogress nounwind uwtable
define linkonce_odr noundef ptr @_ZNKSt10unique_ptrIN7rocksdb15ColumnFamilySetESt14default_deleteIS1_EE3getEv(ptr noundef nonnull align 8 dereferenceable(8) %0) #3 comdat align 2 {
  %2 = alloca ptr, align 8
  store ptr %0, ptr %2, align 8, !tbaa !1870
  %3 = load ptr, ptr %2, align 8
  %4 = getelementptr inbounds nuw %"class.std::unique_ptr.256", ptr %3, i32 0, i32 0
  %5 = call noundef ptr @_ZNKSt15__uniq_ptr_implIN7rocksdb15ColumnFamilySetESt14default_deleteIS1_EE6_M_ptrEv(ptr noundef nonnull align 8 dereferenceable(8) %4) #4
  ret ptr %5
}

; Function Attrs: mustprogress nounwind uwtable
define linkonce_odr noundef zeroext i1 @_ZNK7rocksdb15WriteController10NeedsDelayEv(ptr noundef nonnull align 8 dereferenceable(56) %0) #3 comdat align 2 {
  %2 = alloca ptr, align 8
  store ptr %0, ptr %2, align 8, !tbaa !983
  %3 = load ptr, ptr %2, align 8
  %4 = getelementptr inbounds nuw %"class.rocksdb::WriteController", ptr %3, i32 0, i32 1
  %5 = call noundef i32 @_ZNKSt13__atomic_baseIiE4loadESt12memory_order(ptr noundef nonnull align 4 dereferenceable(4) %4, i32 noundef 5) #4
  %6 = icmp sgt i32 %5, 0
  ret i1 %6
}

; Function Attrs: mustprogress nounwind uwtable
define linkonce_odr noundef ptr @_ZN7rocksdb15ColumnFamilySet16write_controllerEv(ptr noundef nonnull align 8 dereferenceable(520) %0) #3 comdat align 2 {
  %2 = alloca ptr, align 8
  store ptr %0, ptr %2, align 8, !tbaa !1071
  %3 = load ptr, ptr %2, align 8
  %4 = getelementptr inbounds nuw %"class.rocksdb::ColumnFamilySet", ptr %3, i32 0, i32 13
  %5 = load ptr, ptr %4, align 8, !tbaa !1072
  ret ptr %5
}

; Function Attrs: mustprogress nounwind uwtable
define linkonce_odr noundef ptr @_ZN7rocksdb10VersionSet18GetColumnFamilySetEv(ptr noundef nonnull align 8 dereferenceable(746) %0) #3 comdat align 2 {
  %2 = alloca ptr, align 8
  store ptr %0, ptr %2, align 8, !tbaa !64
  %3 = load ptr, ptr %2, align 8
  %4 = getelementptr inbounds nuw %"class.rocksdb::VersionSet", ptr %3, i32 0, i32 2
  %5 = call noundef ptr @_ZNKSt10unique_ptrIN7rocksdb15ColumnFamilySetESt14default_deleteIS1_EE3getEv(ptr noundef nonnull align 8 dereferenceable(8) %4) #4
  ret ptr %5
}

; Function Attrs: mustprogress uwtable
define noundef i32 @_ZN7rocksdb8FlushJob22GetRateLimiterPriorityEv(ptr noundef nonnull align 8 dereferenceable(1688) %0) #5 align 2 {
  %2 = alloca i32, align 4
  %3 = alloca ptr, align 8
  %4 = alloca ptr, align 8
  %5 = alloca i32, align 4
  store ptr %0, ptr %3, align 8, !tbaa !54
  %6 = load ptr, ptr %3, align 8
  %7 = getelementptr inbounds nuw %"class.rocksdb::FlushJob", ptr %6, i32 0, i32 8
  %8 = load ptr, ptr %7, align 8, !tbaa !165
  %9 = icmp ne ptr %8, null
  br i1 %9, label %10, label %36

10:                                               ; preds = %1
  %11 = getelementptr inbounds nuw %"class.rocksdb::FlushJob", ptr %6, i32 0, i32 8
  %12 = load ptr, ptr %11, align 8, !tbaa !165
  %13 = call noundef ptr @_ZN7rocksdb10VersionSet18GetColumnFamilySetEv(ptr noundef nonnull align 8 dereferenceable(746) %12)
  %14 = icmp ne ptr %13, null
  br i1 %14, label %15, label %36

15:                                               ; preds = %10
  %16 = getelementptr inbounds nuw %"class.rocksdb::FlushJob", ptr %6, i32 0, i32 8
  %17 = load ptr, ptr %16, align 8, !tbaa !165
  %18 = call noundef ptr @_ZN7rocksdb10VersionSet18GetColumnFamilySetEv(ptr noundef nonnull align 8 dereferenceable(746) %17)
  %19 = call noundef ptr @_ZN7rocksdb15ColumnFamilySet16write_controllerEv(ptr noundef nonnull align 8 dereferenceable(520) %18)
  %20 = icmp ne ptr %19, null
  br i1 %20, label %21, label %36

21:                                               ; preds = %15
  call void @llvm.lifetime.start.p0(i64 8, ptr %4) #4
  %22 = getelementptr inbounds nuw %"class.rocksdb::FlushJob", ptr %6, i32 0, i32 8
  %23 = load ptr, ptr %22, align 8, !tbaa !165
  %24 = call noundef ptr @_ZN7rocksdb10VersionSet18GetColumnFamilySetEv(ptr noundef nonnull align 8 dereferenceable(746) %23)
  %25 = call noundef ptr @_ZN7rocksdb15ColumnFamilySet16write_controllerEv(ptr noundef nonnull align 8 dereferenceable(520) %24)
  store ptr %25, ptr %4, align 8, !tbaa !983
  %26 = load ptr, ptr %4, align 8, !tbaa !983
  %27 = call noundef zeroext i1 @_ZNK7rocksdb15WriteController9IsStoppedEv(ptr noundef nonnull align 8 dereferenceable(56) %26)
  br i1 %27, label %31, label %28

28:                                               ; preds = %21
  %29 = load ptr, ptr %4, align 8, !tbaa !983
  %30 = call noundef zeroext i1 @_ZNK7rocksdb15WriteController10NeedsDelayEv(ptr noundef nonnull align 8 dereferenceable(56) %29)
  br i1 %30, label %31, label %32

31:                                               ; preds = %28, %21
  store i32 3, ptr %2, align 4
  store i32 1, ptr %5, align 4
  br label %33

32:                                               ; preds = %28
  store i32 0, ptr %5, align 4
  br label %33

33:                                               ; preds = %32, %31
  call void @llvm.lifetime.end.p0(i64 8, ptr %4) #4
  %34 = load i32, ptr %5, align 4
  switch i32 %34, label %39 [
    i32 0, label %35
    i32 1, label %37
  ]

35:                                               ; preds = %33
  br label %36

36:                                               ; preds = %35, %15, %10, %1
  store i32 2, ptr %2, align 4
  br label %37

37:                                               ; preds = %36, %33
  %38 = load i32, ptr %2, align 4
  ret i32 %38

39:                                               ; preds = %33
  unreachable
}