; Function Attrs: mustprogress uwtable
define noundef range(i32 2, 4) i32 @_ZN7rocksdb8FlushJob22GetRateLimiterPriorityEv(ptr noundef nonnull readonly align 8 captures(none) dereferenceable(1688) %0) local_unnamed_addr #10 align 2 {
  %2 = getelementptr inbounds nuw i8, ptr %0, i64 248
  %3 = load ptr, ptr %2, align 8, !tbaa !125
  %.not = icmp eq ptr %3, null
  br i1 %.not, label %16, label %4

4:                                                ; preds = %1
  %5 = getelementptr inbounds nuw i8, ptr %3, i64 64
  %6 = load ptr, ptr %5, align 8, !tbaa !797
  %.not6 = icmp eq ptr %6, null
  br i1 %.not6, label %16, label %7

7:                                                ; preds = %4
  %8 = getelementptr inbounds nuw i8, ptr %6, i64 448
  %9 = load ptr, ptr %8, align 8, !tbaa !798
  %.not7 = icmp eq ptr %9, null
  br i1 %.not7, label %16, label %10

10:                                               ; preds = %7
  %11 = tail call noundef zeroext i1 @_ZNK7rocksdb15WriteController9IsStoppedEv(ptr noundef nonnull align 8 dereferenceable(56) %9)
  br i1 %11, label %.thread, label %12

12:                                               ; preds = %10
  %13 = getelementptr inbounds nuw i8, ptr %9, i64 4
  %14 = load atomic i32, ptr %13 seq_cst, align 4
  %15 = icmp slt i32 %14, 1
  br i1 %15, label %16, label %.thread

16:                                               ; preds = %12, %7, %4, %1
  br label %.thread

.thread:                                          ; preds = %10, %12, %16
  %.1 = phi i32 [ 3, %12 ], [ 2, %16 ], [ 3, %10 ]
  ret i32 %.1
}